target datalayout = "e-m:e-p270:32:32-p271:32:32-p272:64:64-i64:64-i128:128-f80:128-n8:16:32:64-S128"
target triple = "x86_64-pc-linux-gnu"

%struct.PgStat_LocalState = type { ptr, ptr, ptr, %struct.PgStat_Snapshot }
%struct.PgStat_Snapshot = type { i32, i64, [13 x i8], %struct.PgStat_ArchiverStats, %struct.PgStat_BgWriterStats, %struct.PgStat_CheckpointerStats, %struct.PgStat_IO, [8 x %struct.PgStat_SLRUStats], %struct.PgStat_WalStats, [129 x i8], [129 x ptr], ptr, ptr }
%struct.PgStat_ArchiverStats = type { i64, [41 x i8], i64, i64, [41 x i8], i64, i64 }
%struct.PgStat_BgWriterStats = type { i64, i64, i64, i64 }
%struct.PgStat_CheckpointerStats = type { i64, i64, i64, i64, i64, i64, i64, i64, i64, i64, i64 }
%struct.PgStat_IO = type { i64, [17 x %struct.PgStat_BktypeIO] }
%struct.PgStat_BktypeIO = type { [3 x [5 x [8 x i64]]], [3 x [5 x [8 x i64]]], [3 x [5 x [8 x i64]]] }
%struct.PgStat_SLRUStats = type { i64, i64, i64, i64, i64, i64, i64, i64 }
%struct.PgStat_WalStats = type { i64, i64, i64, i64, i64, i64, i64, i64, i64 }
%struct.PgStat_KindInfo = type { i8, i32, i32, i32, i32, i32, i32, ptr, ptr, ptr, ptr, ptr, ptr, ptr, ptr, ptr, ptr, ptr, ptr }

@pgstat_fetch_consistency = dso_local global i32 1, align 4
@pgStatLocal = dso_local global %struct.PgStat_LocalState zeroinitializer, align 8
@force_stats_snapshot_clear = internal global i8 0, align 1
@pgstat_kind_custom_infos = internal global ptr null, align 8

; Function Attrs: nounwind uwtable
define dso_local ptr @pgstat_get_kind_info(i32 noundef %0) #0 {
  %2 = alloca ptr, align 8
  %3 = alloca i32, align 4
  %4 = alloca i32, align 4
  %5 = alloca i32, align 4
  store i32 %0, ptr %3, align 4
  %6 = load i32, ptr %3, align 4
  %7 = call zeroext i1 @pgstat_is_kind_builtin(i32 noundef %6)
  br i1 %7, label %8, label %12

8:                                                ; preds = %1
  %9 = load i32, ptr %3, align 4
  %10 = zext i32 %9 to i64
  %11 = getelementptr inbounds nuw [13 x %struct.PgStat_KindInfo], ptr @pgstat_kind_builtin_infos, i64 0, i64 %10
  store ptr %11, ptr %2, align 8
  br label %36

12:                                               ; preds = %1
  %13 = load i32, ptr %3, align 4
  %14 = call zeroext i1 @pgstat_is_kind_custom(i32 noundef %13)
  br i1 %14, label %15, label %35

15:                                               ; preds = %12
  call void @llvm.lifetime.start.p0(i64 4, ptr %4) #12
  %16 = load i32, ptr %3, align 4
  %17 = sub i32 %16, 128
  store i32 %17, ptr %4, align 4
  %18 = load ptr, ptr @pgstat_kind_custom_infos, align 8
  %19 = icmp eq ptr %18, null
  br i1 %19, label %27, label %20

20:                                               ; preds = %15
  %21 = load ptr, ptr @pgstat_kind_custom_infos, align 8
  %22 = load i32, ptr %4, align 4
  %23 = zext i32 %22 to i64
  %24 = getelementptr inbounds nuw ptr, ptr %21, i64 %23
  %25 = load ptr, ptr %24, align 8
  %26 = icmp eq ptr %25, null
  br i1 %26, label %27, label %28

27:                                               ; preds = %20, %15
  store ptr null, ptr %2, align 8
  store i32 1, ptr %5, align 4
  br label %34

28:                                               ; preds = %20
  %29 = load ptr, ptr @pgstat_kind_custom_infos, align 8
  %30 = load i32, ptr %4, align 4
  %31 = zext i32 %30 to i64
  %32 = getelementptr inbounds nuw ptr, ptr %29, i64 %31
  %33 = load ptr, ptr %32, align 8
  store ptr %33, ptr %2, align 8
  store i32 1, ptr %5, align 4
  br label %34

34:                                               ; preds = %28, %27
  call void @llvm.lifetime.end.p0(i64 4, ptr %4) #12
  br label %36

35:                                               ; preds = %12
  store ptr null, ptr %2, align 8
  br label %36

36:                                               ; preds = %35, %34, %8
  %37 = load ptr, ptr %2, align 8
  ret ptr %37
}

; Function Attrs: inlinehint nounwind uwtable
define internal zeroext i1 @pgstat_is_kind_custom(i32 noundef %0) #6 {
  %2 = alloca i32, align 4
  store i32 %0, ptr %2, align 4
  %3 = load i32, ptr %2, align 4
  %4 = icmp uge i32 %3, 128
  br i1 %4, label %5, label %8

5:                                                ; preds = %1
  %6 = load i32, ptr %2, align 4
  %7 = icmp ule i32 %6, 256
  br label %8

8:                                                ; preds = %5, %1
  %9 = phi i1 [ false, %1 ], [ %7, %5 ]
  ret i1 %9
}

; Function Attrs: inlinehint nounwind uwtable
define internal zeroext i1 @pgstat_is_kind_builtin(i32 noundef %0) #6 {
  %2 = alloca i32, align 4
  store i32 %0, ptr %2, align 4
  %3 = load i32, ptr %2, align 4
  %4 = icmp uge i32 %3, 1
  br i1 %4, label %5, label %8

5:                                                ; preds = %1
  %6 = load i32, ptr %2, align 4
  %7 = icmp ule i32 %6, 12
  br label %8

8:                                                ; preds = %5, %1
  %9 = phi i1 [ false, %1 ], [ %7, %5 ]
  ret i1 %9
}

; Function Attrs: nounwind uwtable
define internal void @pgstat_build_snapshot_fixed(i32 noundef %0) #0 {
  %2 = alloca i32, align 4
  %3 = alloca ptr, align 8
  %4 = alloca i32, align 4
  %5 = alloca ptr, align 8
  %6 = alloca i32, align 4
  store i32 %0, ptr %2, align 4
  call void @llvm.lifetime.start.p0(i64 8, ptr %3) #12
  %7 = load i32, ptr %2, align 4
  %8 = call ptr @pgstat_get_kind_info(i32 noundef %7)
  store ptr %8, ptr %3, align 8
  call void @llvm.lifetime.start.p0(i64 4, ptr %4) #12
  call void @llvm.lifetime.start.p0(i64 8, ptr %5) #12
  %9 = load i32, ptr %2, align 4
  %10 = call zeroext i1 @pgstat_is_kind_builtin(i32 noundef %9)
  br i1 %10, label %11, label %13

11:                                               ; preds = %1
  %12 = load i32, ptr %2, align 4
  store i32 %12, ptr %4, align 4
  store ptr getelementptr inbounds nuw (%struct.PgStat_Snapshot, ptr getelementptr inbounds nuw (%struct.PgStat_LocalState, ptr @pgStatLocal, i32 0, i32 3), i32 0, i32 2), ptr %5, align 8
  br label %16

13:                                               ; preds = %1
  %14 = load i32, ptr %2, align 4
  %15 = sub i32 %14, 128
  store i32 %15, ptr %4, align 4
  store ptr getelementptr inbounds nuw (%struct.PgStat_Snapshot, ptr getelementptr inbounds nuw (%struct.PgStat_LocalState, ptr @pgStatLocal, i32 0, i32 3), i32 0, i32 9), ptr %5, align 8
  br label %16

16:                                               ; preds = %13, %11
  %17 = load i32, ptr @pgstat_fetch_consistency, align 4
  %18 = icmp eq i32 %17, 0
  br i1 %18, label %19, label %24

19:                                               ; preds = %16
  %20 = load ptr, ptr %5, align 8
  %21 = load i32, ptr %4, align 4
  %22 = sext i32 %21 to i64
  %23 = getelementptr inbounds i8, ptr %20, i64 %22
  store i8 0, ptr %23, align 1
  br label %33

24:                                               ; preds = %16
  %25 = load ptr, ptr %5, align 8
  %26 = load i32, ptr %4, align 4
  %27 = sext i32 %26 to i64
  %28 = getelementptr inbounds i8, ptr %25, i64 %27
  %29 = load i8, ptr %28, align 1, !range !4, !noundef !5
  %30 = trunc i8 %29 to i1
  br i1 %30, label %31, label %32

31:                                               ; preds = %24
  store i32 1, ptr %6, align 4
  br label %41

32:                                               ; preds = %24
  br label %33

33:                                               ; preds = %32, %19
  %34 = load ptr, ptr %3, align 8
  %35 = getelementptr inbounds nuw %struct.PgStat_KindInfo, ptr %34, i32 0, i32 17
  %36 = load ptr, ptr %35, align 8
  call void %36()
  %37 = load ptr, ptr %5, align 8
  %38 = load i32, ptr %4, align 4
  %39 = sext i32 %38 to i64
  %40 = getelementptr inbounds i8, ptr %37, i64 %39
  store i8 1, ptr %40, align 1
  store i32 0, ptr %6, align 4
  br label %41

41:                                               ; preds = %33, %31
  call void @llvm.lifetime.end.p0(i64 8, ptr %5) #12
  call void @llvm.lifetime.end.p0(i64 4, ptr %4) #12
  call void @llvm.lifetime.end.p0(i64 8, ptr %3) #12
  %42 = load i32, ptr %6, align 4
  switch i32 %42, label %44 [
    i32 0, label %43
    i32 1, label %43
  ]

43:                                               ; preds = %41, %41
  ret void

44:                                               ; preds = %41
  unreachable
}

; Function Attrs: nounwind uwtable
define dso_local void @pgstat_clear_snapshot() #0 {
  call void @llvm.memset.p0.i64(ptr align 8 getelementptr inbounds nuw (%struct.PgStat_Snapshot, ptr getelementptr inbounds nuw (%struct.PgStat_LocalState, ptr @pgStatLocal, i32 0, i32 3), i32 0, i32 2), i8 0, i64 13, i1 false)
  call void @llvm.memset.p0.i64(ptr align 8 getelementptr inbounds nuw (%struct.PgStat_Snapshot, ptr getelementptr inbounds nuw (%struct.PgStat_LocalState, ptr @pgStatLocal, i32 0, i32 3), i32 0, i32 9), i8 0, i64 129, i1 false)
  store ptr null, ptr getelementptr inbounds nuw (%struct.PgStat_Snapshot, ptr getelementptr inbounds nuw (%struct.PgStat_LocalState, ptr @pgStatLocal, i32 0, i32 3), i32 0, i32 12), align 8
  store i32 0, ptr getelementptr inbounds nuw (%struct.PgStat_LocalState, ptr @pgStatLocal, i32 0, i32 3), align 8
  %1 = load ptr, ptr getelementptr inbounds nuw (%struct.PgStat_Snapshot, ptr getelementptr inbounds nuw (%struct.PgStat_LocalState, ptr @pgStatLocal, i32 0, i32 3), i32 0, i32 11), align 8
  %2 = icmp ne ptr %1, null
  br i1 %2, label %3, label %5

3:                                                ; preds = %0
  %4 = load ptr, ptr getelementptr inbounds nuw (%struct.PgStat_Snapshot, ptr getelementptr inbounds nuw (%struct.PgStat_LocalState, ptr @pgStatLocal, i32 0, i32 3), i32 0, i32 11), align 8
  call void @MemoryContextDelete(ptr noundef %4)
  store ptr null, ptr getelementptr inbounds nuw (%struct.PgStat_Snapshot, ptr getelementptr inbounds nuw (%struct.PgStat_LocalState, ptr @pgStatLocal, i32 0, i32 3), i32 0, i32 11), align 8
  br label %5

5:                                                ; preds = %3, %0
  call void @pgstat_clear_backend_activity_snapshot()
  store i8 0, ptr @force_stats_snapshot_clear, align 1
  ret void
}

; Function Attrs: nounwind uwtable
define dso_local void @pgstat_snapshot_fixed(i32 noundef %0) #0 {
  %2 = alloca i32, align 4
  store i32 %0, ptr %2, align 4
  %3 = load i8, ptr @force_stats_snapshot_clear, align 1, !range !4, !noundef !5
  %4 = trunc i8 %3 to i1
  br i1 %4, label %5, label %6

5:                                                ; preds = %1
  call void @pgstat_clear_snapshot()
  br label %6

6:                                                ; preds = %5, %1
  %7 = load i32, ptr @pgstat_fetch_consistency, align 4
  %8 = icmp eq i32 %7, 2
  br i1 %8, label %9, label %10

9:                                                ; preds = %6
  call void @pgstat_build_snapshot()
  br label %12

10:                                               ; preds = %6
  %11 = load i32, ptr %2, align 4
  call void @pgstat_build_snapshot_fixed(i32 noundef %11)
  br label %12

12:                                               ; preds = %10, %9
  %13 = load i32, ptr %2, align 4
  %14 = call zeroext i1 @pgstat_is_kind_builtin(i32 noundef %13)
  br i1 %14, label %15, label %16

15:                                               ; preds = %12
  br label %21

16:                                               ; preds = %12
  %17 = load i32, ptr %2, align 4
  %18 = call zeroext i1 @pgstat_is_kind_custom(i32 noundef %17)
  br i1 %18, label %19, label %20

19:                                               ; preds = %16
  br label %20

20:                                               ; preds = %19, %16
  br label %21

21:                                               ; preds = %20, %15
  ret void
}