; Function Attrs: nounwind uwtable
define dso_local void @pgstat_snapshot_fixed(i32 noundef %0) local_unnamed_addr #0 {
  %.b3 = load i1, ptr @force_stats_snapshot_clear, align 1
  br i1 %.b3, label %2, label %5

2:                                                ; preds = %1
  tail call void @llvm.memset.p0.i64(ptr noundef nonnull align 8 dereferenceable(13) getelementptr inbounds nuw (i8, ptr @pgStatLocal, i64 40), i8 0, i64 13, i1 false)
  tail call void @llvm.memset.p0.i64(ptr noundef nonnull align 8 dereferenceable(129) getelementptr inbounds nuw (i8, ptr @pgStatLocal, i64 49864), i8 0, i64 129, i1 false)
  store ptr null, ptr getelementptr inbounds nuw (i8, ptr @pgStatLocal, i64 51040), align 8
  store i32 0, ptr getelementptr inbounds nuw (i8, ptr @pgStatLocal, i64 24), align 8
  %3 = load ptr, ptr getelementptr inbounds nuw (i8, ptr @pgStatLocal, i64 51032), align 8
  %.not.i = icmp eq ptr %3, null
  br i1 %.not.i, label %pgstat_clear_snapshot.exit, label %4

4:                                                ; preds = %2
  tail call void @MemoryContextDelete(ptr noundef nonnull %3) #17
  store ptr null, ptr getelementptr inbounds nuw (i8, ptr @pgStatLocal, i64 51032), align 8
  br label %pgstat_clear_snapshot.exit

pgstat_clear_snapshot.exit:                       ; preds = %2, %4
  tail call void @pgstat_clear_backend_activity_snapshot() #17
  store i1 false, ptr @force_stats_snapshot_clear, align 1
  br label %5

5:                                                ; preds = %pgstat_clear_snapshot.exit, %1
  %6 = load i32, ptr @pgstat_fetch_consistency, align 4
  %7 = icmp eq i32 %6, 2
  br i1 %7, label %8, label %9

8:                                                ; preds = %5
  tail call fastcc void @pgstat_build_snapshot()
  br label %pgstat_build_snapshot_fixed.exit

9:                                                ; preds = %5
  %10 = add i32 %0, -1
  %11 = icmp ult i32 %10, 12
  br i1 %11, label %12, label %15

12:                                               ; preds = %9
  %13 = zext nneg i32 %0 to i64
  %14 = getelementptr inbounds nuw [13 x %struct.PgStat_KindInfo], ptr @pgstat_kind_builtin_infos, i64 0, i64 %13
  br label %pgstat_get_kind_info.exit.i

15:                                               ; preds = %9
  %16 = add i32 %0, -128
  %17 = icmp ult i32 %16, 129
  br i1 %17, label %18, label %pgstat_get_kind_info.exit.i

18:                                               ; preds = %15
  %19 = load ptr, ptr @pgstat_kind_custom_infos, align 8
  %20 = icmp eq ptr %19, null
  br i1 %20, label %pgstat_get_kind_info.exit.i, label %21

21:                                               ; preds = %18
  %22 = zext nneg i32 %16 to i64
  %23 = getelementptr inbounds nuw ptr, ptr %19, i64 %22
  %24 = load ptr, ptr %23, align 8
  br label %pgstat_get_kind_info.exit.i

pgstat_get_kind_info.exit.i:                      ; preds = %21, %18, %15, %12
  %.010.i = phi i32 [ %0, %12 ], [ %16, %15 ], [ %16, %18 ], [ %16, %21 ]
  %.0.i = phi ptr [ getelementptr inbounds nuw (i8, ptr @pgStatLocal, i64 40), %12 ], [ getelementptr inbounds nuw (i8, ptr @pgStatLocal, i64 49864), %15 ], [ getelementptr inbounds nuw (i8, ptr @pgStatLocal, i64 49864), %18 ], [ getelementptr inbounds nuw (i8, ptr @pgStatLocal, i64 49864), %21 ]
  %.0.i.i = phi ptr [ %14, %12 ], [ null, %15 ], [ null, %18 ], [ %24, %21 ]
  %25 = icmp eq i32 %6, 0
  %26 = sext i32 %.010.i to i64
  %27 = getelementptr inbounds i8, ptr %.0.i, i64 %26
  br i1 %25, label %28, label %29

28:                                               ; preds = %pgstat_get_kind_info.exit.i
  store i8 0, ptr %27, align 1
  br label %32

29:                                               ; preds = %pgstat_get_kind_info.exit.i
  %30 = load i8, ptr %27, align 1, !range !8, !noundef !7
  %31 = trunc nuw i8 %30 to i1
  br i1 %31, label %pgstat_build_snapshot_fixed.exit, label %32

32:                                               ; preds = %29, %28
  %33 = getelementptr inbounds nuw i8, ptr %.0.i.i, i64 112
  %34 = load ptr, ptr %33, align 8
  tail call void %34() #17
  store i8 1, ptr %27, align 1
  br label %pgstat_build_snapshot_fixed.exit

pgstat_build_snapshot_fixed.exit:                 ; preds = %32, %29, %8
  ret void
}